target datalayout = "e-m:e-p270:32:32-p271:32:32-p272:64:64-i64:64-i128:128-f80:128-n8:16:32:64-S128"
target triple = "x86_64-pc-linux-gnu"

%struct.sentinelState = type { [41 x i8], i64, ptr, i32, i32, i64, i64, ptr, ptr, i32, i64, i32, ptr, ptr, i32, i32 }
%struct.sentinelRedisInstance = type { i32, ptr, ptr, i64, ptr, ptr, i64, i64, i64, i64, i64, i64, i64, i64, i64, ptr, i32, i64, i64, ptr, ptr, i32, i32, ptr, ptr, i64, i32, i32, i64, ptr, ptr, i32, i32, i64, ptr, i64, i64, i32, i64, i64, i64, i64, ptr, ptr, ptr, ptr }
%struct.instanceLink = type { i32, i32, i32, ptr, ptr, i64, i64, i64, i64, i64, i64, i64, i64 }
%struct.redisReply = type { i32, i64, double, i64, ptr, [4 x i8], i64, ptr }

@sentinel = dso_local global %struct.sentinelState zeroinitializer, align 8
@.str.201 = private unnamed_addr constant [8 x i8] c"message\00", align 1

; Function Attrs: nounwind uwtable
define dso_local void @sentinelReceiveHelloMessages(ptr noundef %0, ptr noundef %1, ptr noundef %2) #0 {
  %4 = alloca ptr, align 8
  %5 = alloca ptr, align 8
  %6 = alloca ptr, align 8
  %7 = alloca ptr, align 8
  %8 = alloca ptr, align 8
  %9 = alloca i32, align 4
  store ptr %0, ptr %4, align 8, !tbaa !145
  store ptr %1, ptr %5, align 8, !tbaa !10
  store ptr %2, ptr %6, align 8, !tbaa !10
  call void @llvm.lifetime.start.p0(i64 8, ptr %7) #16
  %10 = load ptr, ptr %6, align 8, !tbaa !10
  store ptr %10, ptr %7, align 8, !tbaa !11
  call void @llvm.lifetime.start.p0(i64 8, ptr %8) #16
  %11 = load ptr, ptr %5, align 8, !tbaa !10
  %12 = icmp ne ptr %11, null
  br i1 %12, label %13, label %16

13:                                               ; preds = %3
  %14 = load ptr, ptr %7, align 8, !tbaa !11
  %15 = icmp ne ptr %14, null
  br i1 %15, label %17, label %16

16:                                               ; preds = %13, %3
  store i32 1, ptr %9, align 4
  br label %103

17:                                               ; preds = %13
  %18 = load ptr, ptr %5, align 8, !tbaa !10
  store ptr %18, ptr %8, align 8, !tbaa !262
  %19 = call i64 @mstime()
  %20 = load ptr, ptr %7, align 8, !tbaa !11
  %21 = getelementptr inbounds nuw %struct.sentinelRedisInstance, ptr %20, i32 0, i32 5
  %22 = load ptr, ptr %21, align 8, !tbaa !22
  %23 = getelementptr inbounds nuw %struct.instanceLink, ptr %22, i32 0, i32 7
  store i64 %19, ptr %23, align 8, !tbaa !140
  %24 = load ptr, ptr %8, align 8, !tbaa !262
  %25 = getelementptr inbounds nuw %struct.redisReply, ptr %24, i32 0, i32 0
  %26 = load i32, ptr %25, align 8, !tbaa !264
  %27 = icmp ne i32 %26, 2
  br i1 %27, label %28, label %33

28:                                               ; preds = %17
  %29 = load ptr, ptr %8, align 8, !tbaa !262
  %30 = getelementptr inbounds nuw %struct.redisReply, ptr %29, i32 0, i32 0
  %31 = load i32, ptr %30, align 8, !tbaa !264
  %32 = icmp ne i32 %31, 12
  br i1 %32, label %75, label %33

33:                                               ; preds = %28, %17
  %34 = load ptr, ptr %8, align 8, !tbaa !262
  %35 = getelementptr inbounds nuw %struct.redisReply, ptr %34, i32 0, i32 6
  %36 = load i64, ptr %35, align 8, !tbaa !267
  %37 = icmp ne i64 %36, 3
  br i1 %37, label %75, label %38

38:                                               ; preds = %33
  %39 = load ptr, ptr %8, align 8, !tbaa !262
  %40 = getelementptr inbounds nuw %struct.redisReply, ptr %39, i32 0, i32 7
  %41 = load ptr, ptr %40, align 8, !tbaa !268
  %42 = getelementptr inbounds ptr, ptr %41, i64 0
  %43 = load ptr, ptr %42, align 8, !tbaa !262
  %44 = getelementptr inbounds nuw %struct.redisReply, ptr %43, i32 0, i32 0
  %45 = load i32, ptr %44, align 8, !tbaa !264
  %46 = icmp ne i32 %45, 1
  br i1 %46, label %75, label %47

47:                                               ; preds = %38
  %48 = load ptr, ptr %8, align 8, !tbaa !262
  %49 = getelementptr inbounds nuw %struct.redisReply, ptr %48, i32 0, i32 7
  %50 = load ptr, ptr %49, align 8, !tbaa !268
  %51 = getelementptr inbounds ptr, ptr %50, i64 1
  %52 = load ptr, ptr %51, align 8, !tbaa !262
  %53 = getelementptr inbounds nuw %struct.redisReply, ptr %52, i32 0, i32 0
  %54 = load i32, ptr %53, align 8, !tbaa !264
  %55 = icmp ne i32 %54, 1
  br i1 %55, label %75, label %56

56:                                               ; preds = %47
  %57 = load ptr, ptr %8, align 8, !tbaa !262
  %58 = getelementptr inbounds nuw %struct.redisReply, ptr %57, i32 0, i32 7
  %59 = load ptr, ptr %58, align 8, !tbaa !268
  %60 = getelementptr inbounds ptr, ptr %59, i64 2
  %61 = load ptr, ptr %60, align 8, !tbaa !262
  %62 = getelementptr inbounds nuw %struct.redisReply, ptr %61, i32 0, i32 0
  %63 = load i32, ptr %62, align 8, !tbaa !264
  %64 = icmp ne i32 %63, 1
  br i1 %64, label %75, label %65

65:                                               ; preds = %56
  %66 = load ptr, ptr %8, align 8, !tbaa !262
  %67 = getelementptr inbounds nuw %struct.redisReply, ptr %66, i32 0, i32 7
  %68 = load ptr, ptr %67, align 8, !tbaa !268
  %69 = getelementptr inbounds ptr, ptr %68, i64 0
  %70 = load ptr, ptr %69, align 8, !tbaa !262
  %71 = getelementptr inbounds nuw %struct.redisReply, ptr %70, i32 0, i32 4
  %72 = load ptr, ptr %71, align 8, !tbaa !269
  %73 = call i32 @strcmp(ptr noundef %72, ptr noundef @.str.201) #19
  %74 = icmp ne i32 %73, 0
  br i1 %74, label %75, label %76

75:                                               ; preds = %65, %56, %47, %38, %33, %28
  store i32 1, ptr %9, align 4
  br label %103

76:                                               ; preds = %65
  %77 = load ptr, ptr %8, align 8, !tbaa !262
  %78 = getelementptr inbounds nuw %struct.redisReply, ptr %77, i32 0, i32 7
  %79 = load ptr, ptr %78, align 8, !tbaa !268
  %80 = getelementptr inbounds ptr, ptr %79, i64 2
  %81 = load ptr, ptr %80, align 8, !tbaa !262
  %82 = getelementptr inbounds nuw %struct.redisReply, ptr %81, i32 0, i32 4
  %83 = load ptr, ptr %82, align 8, !tbaa !269
  %84 = call ptr @strstr(ptr noundef %83, ptr noundef @sentinel) #19
  %85 = icmp ne ptr %84, null
  br i1 %85, label %86, label %87

86:                                               ; preds = %76
  store i32 1, ptr %9, align 4
  br label %103

87:                                               ; preds = %76
  %88 = load ptr, ptr %8, align 8, !tbaa !262
  %89 = getelementptr inbounds nuw %struct.redisReply, ptr %88, i32 0, i32 7
  %90 = load ptr, ptr %89, align 8, !tbaa !268
  %91 = getelementptr inbounds ptr, ptr %90, i64 2
  %92 = load ptr, ptr %91, align 8, !tbaa !262
  %93 = getelementptr inbounds nuw %struct.redisReply, ptr %92, i32 0, i32 4
  %94 = load ptr, ptr %93, align 8, !tbaa !269
  %95 = load ptr, ptr %8, align 8, !tbaa !262
  %96 = getelementptr inbounds nuw %struct.redisReply, ptr %95, i32 0, i32 7
  %97 = load ptr, ptr %96, align 8, !tbaa !268
  %98 = getelementptr inbounds ptr, ptr %97, i64 2
  %99 = load ptr, ptr %98, align 8, !tbaa !262
  %100 = getelementptr inbounds nuw %struct.redisReply, ptr %99, i32 0, i32 3
  %101 = load i64, ptr %100, align 8, !tbaa !270
  %102 = trunc i64 %101 to i32
  call void @sentinelProcessHelloMessage(ptr noundef %94, i32 noundef %102)
  store i32 0, ptr %9, align 4
  br label %103

103:                                              ; preds = %87, %86, %75, %16
  call void @llvm.lifetime.end.p0(i64 8, ptr %8) #16
  call void @llvm.lifetime.end.p0(i64 8, ptr %7) #16
  %104 = load i32, ptr %9, align 4
  switch i32 %104, label %106 [
    i32 0, label %105
    i32 1, label %105
  ]

105:                                              ; preds = %103, %103
  ret void

106:                                              ; preds = %103
  unreachable
}