; Function Attrs: nounwind uwtable
define dso_local void @sentinelReceiveHelloMessages(ptr readnone captures(none) %0, ptr noundef readonly captures(address_is_null) %1, ptr noundef readonly captures(address_is_null) %2) #0 {
  %4 = icmp ne ptr %1, null
  %5 = icmp ne ptr %2, null
  %or.cond = and i1 %4, %5
  br i1 %or.cond, label %6, label %40

6:                                                ; preds = %3
  %7 = tail call i64 @mstime() #30
  %8 = getelementptr inbounds nuw i8, ptr %2, i64 40
  %9 = load ptr, ptr %8, align 8, !tbaa !19
  %10 = getelementptr inbounds nuw i8, ptr %9, i64 48
  store i64 %7, ptr %10, align 8, !tbaa !227
  %11 = load i32, ptr %1, align 8, !tbaa !228
  switch i32 %11, label %40 [
    i32 2, label %12
    i32 12, label %12
  ]

12:                                               ; preds = %6, %6
  %13 = getelementptr inbounds nuw i8, ptr %1, i64 48
  %14 = load i64, ptr %13, align 8, !tbaa !231
  %.not19 = icmp eq i64 %14, 3
  br i1 %.not19, label %15, label %40

15:                                               ; preds = %12
  %16 = getelementptr inbounds nuw i8, ptr %1, i64 56
  %17 = load ptr, ptr %16, align 8, !tbaa !232
  %18 = load ptr, ptr %17, align 8, !tbaa !233
  %19 = load i32, ptr %18, align 8, !tbaa !228
  %.not20 = icmp eq i32 %19, 1
  br i1 %.not20, label %20, label %40

20:                                               ; preds = %15
  %21 = getelementptr inbounds nuw i8, ptr %17, i64 8
  %22 = load ptr, ptr %21, align 8, !tbaa !233
  %23 = load i32, ptr %22, align 8, !tbaa !228
  %.not21 = icmp eq i32 %23, 1
  br i1 %.not21, label %24, label %40

24:                                               ; preds = %20
  %25 = getelementptr inbounds nuw i8, ptr %17, i64 16
  %26 = load ptr, ptr %25, align 8, !tbaa !233
  %27 = load i32, ptr %26, align 8, !tbaa !228
  %.not22 = icmp eq i32 %27, 1
  br i1 %.not22, label %28, label %40

28:                                               ; preds = %24
  %29 = getelementptr inbounds nuw i8, ptr %18, i64 32
  %30 = load ptr, ptr %29, align 8, !tbaa !235
  %31 = tail call i32 @strcmp(ptr noundef nonnull dereferenceable(1) %30, ptr noundef nonnull dereferenceable(8) @.str.201) #34
  %.not23 = icmp eq i32 %31, 0
  br i1 %.not23, label %32, label %40

32:                                               ; preds = %28
  %33 = getelementptr inbounds nuw i8, ptr %26, i64 32
  %34 = load ptr, ptr %33, align 8, !tbaa !235
  %35 = tail call ptr @strstr(ptr noundef nonnull dereferenceable(1) %34, ptr noundef nonnull dereferenceable(1) @sentinel) #34
  %.not24 = icmp eq ptr %35, null
  br i1 %.not24, label %36, label %40

36:                                               ; preds = %32
  %37 = getelementptr inbounds nuw i8, ptr %26, i64 24
  %38 = load i64, ptr %37, align 8, !tbaa !236
  %39 = trunc i64 %38 to i32
  tail call void @sentinelProcessHelloMessage(ptr noundef nonnull %34, i32 noundef %39)
  br label %40

40:                                               ; preds = %32, %12, %15, %20, %24, %28, %6, %3, %36
  ret void
}